target datalayout = "e-m:e-p270:32:32-p271:32:32-p272:64:64-i64:64-i128:128-f80:128-n8:16:32:64-S128"
target triple = "x86_64-pc-linux-gnu"

; Function Attrs: nounwind uwtable
define internal void @vert_8x8_c(ptr noalias noundef %0, i64 noundef %1, ptr noundef %2, ptr noundef %3) #1 {
  %5 = alloca ptr, align 8
  %6 = alloca i64, align 8
  %7 = alloca ptr, align 8
  %8 = alloca ptr, align 8
  %9 = alloca ptr, align 8
  %10 = alloca ptr, align 8
  %11 = alloca i64, align 8
  %12 = alloca i64, align 8
  %13 = alloca i32, align 4
  store ptr %0, ptr %5, align 8, !tbaa !10
  store i64 %1, ptr %6, align 8, !tbaa !12
  store ptr %2, ptr %7, align 8, !tbaa !10
  store ptr %3, ptr %8, align 8, !tbaa !10
  call void @llvm.lifetime.start.p0(i64 8, ptr %9) #9
  %14 = load ptr, ptr %5, align 8, !tbaa !10
  store ptr %14, ptr %9, align 8, !tbaa !14
  call void @llvm.lifetime.start.p0(i64 8, ptr %10) #9
  %15 = load ptr, ptr %8, align 8, !tbaa !10
  store ptr %15, ptr %10, align 8, !tbaa !14
  call void @llvm.lifetime.start.p0(i64 8, ptr %11) #9
  %16 = load ptr, ptr %10, align 8, !tbaa !14
  %17 = getelementptr inbounds i16, ptr %16, i64 0
  %18 = load i64, ptr %17, align 8, !tbaa !16
  store i64 %18, ptr %11, align 8, !tbaa !12
  call void @llvm.lifetime.start.p0(i64 8, ptr %12) #9
  %19 = load ptr, ptr %10, align 8, !tbaa !14
  %20 = getelementptr inbounds i16, ptr %19, i64 4
  %21 = load i64, ptr %20, align 8, !tbaa !16
  store i64 %21, ptr %12, align 8, !tbaa !12
  call void @llvm.lifetime.start.p0(i64 4, ptr %13) #9
  %22 = load i64, ptr %6, align 8, !tbaa !12
  %23 = udiv i64 %22, 2
  store i64 %23, ptr %6, align 8, !tbaa !12
  store i32 0, ptr %13, align 4, !tbaa !19
  br label %24

24:                                               ; preds = %37, %4
  %25 = load i32, ptr %13, align 4, !tbaa !19
  %26 = icmp slt i32 %25, 8
  br i1 %26, label %27, label %40

27:                                               ; preds = %24
  %28 = load i64, ptr %11, align 8, !tbaa !12
  %29 = load ptr, ptr %9, align 8, !tbaa !14
  %30 = getelementptr inbounds i16, ptr %29, i64 0
  store i64 %28, ptr %30, align 8, !tbaa !16
  %31 = load i64, ptr %12, align 8, !tbaa !12
  %32 = load ptr, ptr %9, align 8, !tbaa !14
  %33 = getelementptr inbounds i16, ptr %32, i64 4
  store i64 %31, ptr %33, align 8, !tbaa !16
  %34 = load i64, ptr %6, align 8, !tbaa !12
  %35 = load ptr, ptr %9, align 8, !tbaa !14
  %36 = getelementptr inbounds i16, ptr %35, i64 %34
  store ptr %36, ptr %9, align 8, !tbaa !14
  br label %37

37:                                               ; preds = %27
  %38 = load i32, ptr %13, align 4, !tbaa !19
  %39 = add nsw i32 %38, 1
  store i32 %39, ptr %13, align 4, !tbaa !19
  br label %24, !llvm.loop !23

40:                                               ; preds = %24
  call void @llvm.lifetime.end.p0(i64 4, ptr %13) #9
  call void @llvm.lifetime.end.p0(i64 8, ptr %12) #9
  call void @llvm.lifetime.end.p0(i64 8, ptr %11) #9
  call void @llvm.lifetime.end.p0(i64 8, ptr %10) #9
  call void @llvm.lifetime.end.p0(i64 8, ptr %9) #9
  ret void
}