; Function Attrs: nofree norecurse nosync nounwind memory(argmem: readwrite) uwtable
define internal void @vert_8x8_c(ptr noalias noundef writeonly captures(none) %0, i64 noundef %1, ptr readnone captures(none) %2, ptr noundef readonly captures(none) %3) #2 {
  %5 = load i64, ptr %3, align 8, !tbaa !8
  %6 = getelementptr inbounds nuw i8, ptr %3, i64 8
  %7 = load i64, ptr %6, align 8, !tbaa !8
  %8 = lshr i64 %1, 1
  br label %9

9:                                                ; preds = %4, %9
  %.014 = phi i32 [ 0, %4 ], [ %12, %9 ]
  %.01213 = phi ptr [ %0, %4 ], [ %11, %9 ]
  store i64 %5, ptr %.01213, align 8, !tbaa !8
  %10 = getelementptr inbounds nuw i8, ptr %.01213, i64 8
  store i64 %7, ptr %10, align 8, !tbaa !8
  %11 = getelementptr inbounds nuw i16, ptr %.01213, i64 %8
  %12 = add nuw nsw i32 %.014, 1
  %exitcond.not = icmp eq i32 %12, 8
  br i1 %exitcond.not, label %13, label %9, !llvm.loop !13

13:                                               ; preds = %9
  ret void
}